target datalayout = "e-m:e-p270:32:32-p271:32:32-p272:64:64-i64:64-i128:128-f80:128-n8:16:32:64-S128"
target triple = "x86_64-pc-linux-gnu"

; Function Attrs: nounwind uwtable
define i32 @stbsp__real_to_parts(ptr noundef %0, ptr noundef %1, double noundef %2) #0 {
  %4 = alloca ptr, align 8
  %5 = alloca ptr, align 8
  %6 = alloca double, align 8
  %7 = alloca double, align 8
  %8 = alloca i64, align 8
  %9 = alloca i32, align 4
  store ptr %0, ptr %4, align 8, !tbaa !68
  store ptr %1, ptr %5, align 8, !tbaa !20
  store double %2, ptr %6, align 8, !tbaa !22
  call void @llvm.lifetime.start.p0(i64 8, ptr %7) #5
  call void @llvm.lifetime.start.p0(i64 8, ptr %8) #5
  store i64 0, ptr %8, align 8, !tbaa !24
  %10 = load double, ptr %6, align 8, !tbaa !22
  store double %10, ptr %7, align 8, !tbaa !22
  call void @llvm.lifetime.start.p0(i64 4, ptr %9) #5
  store i32 0, ptr %9, align 4, !tbaa !6
  br label %11

11:                                               ; preds = %22, %3
  %12 = load i32, ptr %9, align 4, !tbaa !6
  %13 = icmp slt i32 %12, 8
  br i1 %13, label %14, label %25

14:                                               ; preds = %11
  %15 = load i32, ptr %9, align 4, !tbaa !6
  %16 = sext i32 %15 to i64
  %17 = getelementptr inbounds i8, ptr %7, i64 %16
  %18 = load i8, ptr %17, align 1, !tbaa !3
  %19 = load i32, ptr %9, align 4, !tbaa !6
  %20 = sext i32 %19 to i64
  %21 = getelementptr inbounds i8, ptr %8, i64 %20
  store i8 %18, ptr %21, align 1, !tbaa !3
  br label %22

22:                                               ; preds = %14
  %23 = load i32, ptr %9, align 4, !tbaa !6
  %24 = add nsw i32 %23, 1
  store i32 %24, ptr %9, align 4, !tbaa !6
  br label %11, !llvm.loop !70

25:                                               ; preds = %11
  call void @llvm.lifetime.end.p0(i64 4, ptr %9) #5
  %26 = load i64, ptr %8, align 8, !tbaa !24
  %27 = and i64 %26, 4503599627370495
  %28 = load ptr, ptr %4, align 8, !tbaa !68
  store i64 %27, ptr %28, align 8, !tbaa !24
  %29 = load i64, ptr %8, align 8, !tbaa !24
  %30 = ashr i64 %29, 52
  %31 = and i64 %30, 2047
  %32 = sub nsw i64 %31, 1023
  %33 = trunc i64 %32 to i32
  %34 = load ptr, ptr %5, align 8, !tbaa !20
  store i32 %33, ptr %34, align 4, !tbaa !6
  %35 = load i64, ptr %8, align 8, !tbaa !24
  %36 = lshr i64 %35, 63
  %37 = trunc i64 %36 to i32
  call void @llvm.lifetime.end.p0(i64 8, ptr %8) #5
  call void @llvm.lifetime.end.p0(i64 8, ptr %7) #5
  ret i32 %37
}