; Function Attrs: mustprogress nofree norecurse nosync nounwind willreturn memory(argmem: write) uwtable
define range(i32 0, 2) i32 @stbsp__real_to_parts(ptr noundef writeonly captures(none) initializes((0, 8)) %0, ptr noundef writeonly captures(none) initializes((0, 4)) %1, double noundef %2) local_unnamed_addr #1 {
  %4 = bitcast double %2 to i64
  %5 = and i64 %4, 4503599627370495
  store i64 %5, ptr %0, align 8, !tbaa !27
  %6 = lshr i64 %4, 52
  %7 = trunc nuw nsw i64 %6 to i32
  %8 = and i32 %7, 2047
  %9 = add nsw i32 %8, -1023
  store i32 %9, ptr %1, align 4, !tbaa !6
  %10 = lshr i64 %4, 63
  %11 = trunc nuw nsw i64 %10 to i32
  ret i32 %11
}